target datalayout = "e-m:e-p270:32:32-p271:32:32-p272:64:64-i64:64-i128:128-f80:128-n8:16:32:64-S128"
target triple = "x86_64-pc-linux-gnu"

%"class.grpc_core::StringMatcher" = type <{ i32, [4 x i8], %"class.std::__cxx11::basic_string", %"class.std::unique_ptr", i8, [7 x i8] }>
%"class.std::__cxx11::basic_string" = type { %"struct.std::__cxx11::basic_string<char>::_Alloc_hider", i64, %union.anon.1 }
%"struct.std::__cxx11::basic_string<char>::_Alloc_hider" = type { ptr }
%union.anon.1 = type { i64, [8 x i8] }
%"class.std::unique_ptr" = type { %"struct.std::__uniq_ptr_data" }
%"struct.std::__uniq_ptr_data" = type { %"class.std::__uniq_ptr_impl" }
%"class.std::__uniq_ptr_impl" = type { %"class.std::tuple" }
%"class.std::tuple" = type { %"struct.std::_Tuple_impl" }
%"struct.std::_Tuple_impl" = type { %"struct.std::_Head_base.3" }
%"struct.std::_Head_base.3" = type { ptr }
%"class.grpc_core::HeaderMatcher" = type <{ %"class.std::__cxx11::basic_string", i32, [4 x i8], %"class.grpc_core::StringMatcher", i64, i64, i8, i8, [6 x i8] }>

; Function Attrs: mustprogress uwtable
define available_externally noundef nonnull align 8 dereferenceable(32) ptr @_ZNSt7__cxx1112basic_stringIcSt11char_traitsIcESaIcEE6assignERKS4_(ptr noundef nonnull align 8 dereferenceable(32) %0, ptr noundef nonnull align 8 dereferenceable(32) %1) #4 align 2 {
  %3 = alloca ptr, align 8
  %4 = alloca ptr, align 8
  store ptr %0, ptr %3, align 8, !tbaa !17
  store ptr %1, ptr %4, align 8, !tbaa !17
  %5 = load ptr, ptr %3, align 8
  %6 = load ptr, ptr %4, align 8, !tbaa !17
  call void @_ZNSt7__cxx1112basic_stringIcSt11char_traitsIcESaIcEE9_M_assignERKS4_(ptr noundef nonnull align 8 dereferenceable(32) %5, ptr noundef nonnull align 8 dereferenceable(32) %6)
  ret ptr %5
}

; Function Attrs: mustprogress uwtable
define available_externally noundef nonnull align 8 dereferenceable(32) ptr @_ZNSt7__cxx1112basic_stringIcSt11char_traitsIcESaIcEEaSERKS4_(ptr noundef nonnull align 8 dereferenceable(32) %0, ptr noundef nonnull align 8 dereferenceable(32) %1) #4 align 2 {
  %3 = alloca ptr, align 8
  %4 = alloca ptr, align 8
  store ptr %0, ptr %3, align 8, !tbaa !17
  store ptr %1, ptr %4, align 8, !tbaa !17
  %5 = load ptr, ptr %3, align 8
  %6 = load ptr, ptr %4, align 8, !tbaa !17
  %7 = call noundef nonnull align 8 dereferenceable(32) ptr @_ZNSt7__cxx1112basic_stringIcSt11char_traitsIcESaIcEE6assignERKS4_(ptr noundef nonnull align 8 dereferenceable(32) %5, ptr noundef nonnull align 8 dereferenceable(32) %6)
  ret ptr %7
}

; Function Attrs: mustprogress uwtable
define noundef nonnull align 8 dereferenceable(114) ptr @_ZN9grpc_core13HeaderMatcheraSERKS0_(ptr noundef nonnull align 8 dereferenceable(114) %0, ptr noundef nonnull align 8 dereferenceable(114) %1) #4 align 2 {
  %3 = alloca ptr, align 8
  %4 = alloca ptr, align 8
  store ptr %0, ptr %3, align 8, !tbaa !85
  store ptr %1, ptr %4, align 8, !tbaa !85
  %5 = load ptr, ptr %3, align 8
  %6 = load ptr, ptr %4, align 8, !tbaa !85
  %7 = getelementptr inbounds nuw %"class.grpc_core::HeaderMatcher", ptr %6, i32 0, i32 0
  %8 = getelementptr inbounds nuw %"class.grpc_core::HeaderMatcher", ptr %5, i32 0, i32 0
  %9 = call noundef nonnull align 8 dereferenceable(32) ptr @_ZNSt7__cxx1112basic_stringIcSt11char_traitsIcESaIcEEaSERKS4_(ptr noundef nonnull align 8 dereferenceable(32) %8, ptr noundef nonnull align 8 dereferenceable(32) %7)
  %10 = load ptr, ptr %4, align 8, !tbaa !85
  %11 = getelementptr inbounds nuw %"class.grpc_core::HeaderMatcher", ptr %10, i32 0, i32 1
  %12 = load i32, ptr %11, align 8, !tbaa !92
  %13 = getelementptr inbounds nuw %"class.grpc_core::HeaderMatcher", ptr %5, i32 0, i32 1
  store i32 %12, ptr %13, align 8, !tbaa !92
  %14 = load ptr, ptr %4, align 8, !tbaa !85
  %15 = getelementptr inbounds nuw %"class.grpc_core::HeaderMatcher", ptr %14, i32 0, i32 7
  %16 = load i8, ptr %15, align 1, !tbaa !94, !range !15, !noundef !16
  %17 = trunc i8 %16 to i1
  %18 = getelementptr inbounds nuw %"class.grpc_core::HeaderMatcher", ptr %5, i32 0, i32 7
  %19 = zext i1 %17 to i8
  store i8 %19, ptr %18, align 1, !tbaa !94
  %20 = getelementptr inbounds nuw %"class.grpc_core::HeaderMatcher", ptr %5, i32 0, i32 1
  %21 = load i32, ptr %20, align 8, !tbaa !92
  switch i32 %21, label %38 [
    i32 5, label %22
    i32 6, label %31
  ]

22:                                               ; preds = %2
  %23 = load ptr, ptr %4, align 8, !tbaa !85
  %24 = getelementptr inbounds nuw %"class.grpc_core::HeaderMatcher", ptr %23, i32 0, i32 4
  %25 = load i64, ptr %24, align 8, !tbaa !95
  %26 = getelementptr inbounds nuw %"class.grpc_core::HeaderMatcher", ptr %5, i32 0, i32 4
  store i64 %25, ptr %26, align 8, !tbaa !95
  %27 = load ptr, ptr %4, align 8, !tbaa !85
  %28 = getelementptr inbounds nuw %"class.grpc_core::HeaderMatcher", ptr %27, i32 0, i32 5
  %29 = load i64, ptr %28, align 8, !tbaa !96
  %30 = getelementptr inbounds nuw %"class.grpc_core::HeaderMatcher", ptr %5, i32 0, i32 5
  store i64 %29, ptr %30, align 8, !tbaa !96
  br label %43

31:                                               ; preds = %2
  %32 = load ptr, ptr %4, align 8, !tbaa !85
  %33 = getelementptr inbounds nuw %"class.grpc_core::HeaderMatcher", ptr %32, i32 0, i32 6
  %34 = load i8, ptr %33, align 8, !tbaa !97, !range !15, !noundef !16
  %35 = trunc i8 %34 to i1
  %36 = getelementptr inbounds nuw %"class.grpc_core::HeaderMatcher", ptr %5, i32 0, i32 6
  %37 = zext i1 %35 to i8
  store i8 %37, ptr %36, align 8, !tbaa !97
  br label %43

38:                                               ; preds = %2
  %39 = load ptr, ptr %4, align 8, !tbaa !85
  %40 = getelementptr inbounds nuw %"class.grpc_core::HeaderMatcher", ptr %39, i32 0, i32 3
  %41 = getelementptr inbounds nuw %"class.grpc_core::HeaderMatcher", ptr %5, i32 0, i32 3
  %42 = call noundef nonnull align 8 dereferenceable(49) ptr @_ZN9grpc_core13StringMatcheraSERKS0_(ptr noundef nonnull align 8 dereferenceable(49) %41, ptr noundef nonnull align 8 dereferenceable(49) %40)
  br label %43

43:                                               ; preds = %38, %31, %22
  ret ptr %5
}