; Function Attrs: mustprogress uwtable
define noundef nonnull align 8 dereferenceable(114) ptr @_ZN9grpc_core13HeaderMatcheraSERKS0_(ptr noundef nonnull returned align 8 dereferenceable(114) %0, ptr noundef nonnull align 8 dereferenceable(114) %1) local_unnamed_addr #3 align 2 {
  tail call void @_ZNSt7__cxx1112basic_stringIcSt11char_traitsIcESaIcEE9_M_assignERKS4_(ptr noundef nonnull align 8 dereferenceable(32) %0, ptr noundef nonnull align 8 dereferenceable(32) %1)
  %3 = getelementptr inbounds nuw i8, ptr %1, i64 32
  %4 = load i32, ptr %3, align 8, !tbaa !82
  %5 = getelementptr inbounds nuw i8, ptr %0, i64 32
  store i32 %4, ptr %5, align 8, !tbaa !82
  %6 = getelementptr inbounds nuw i8, ptr %1, i64 113
  %7 = load i8, ptr %6, align 1, !tbaa !85, !range !48, !noundef !49
  %8 = getelementptr inbounds nuw i8, ptr %0, i64 113
  store i8 %7, ptr %8, align 1, !tbaa !85
  switch i32 %4, label %20 [
    i32 5, label %9
    i32 6, label %16
  ]

9:                                                ; preds = %2
  %10 = getelementptr inbounds nuw i8, ptr %1, i64 96
  %11 = load i64, ptr %10, align 8, !tbaa !86
  %12 = getelementptr inbounds nuw i8, ptr %0, i64 96
  store i64 %11, ptr %12, align 8, !tbaa !86
  %13 = getelementptr inbounds nuw i8, ptr %1, i64 104
  %14 = load i64, ptr %13, align 8, !tbaa !87
  %15 = getelementptr inbounds nuw i8, ptr %0, i64 104
  store i64 %14, ptr %15, align 8, !tbaa !87
  br label %24

16:                                               ; preds = %2
  %17 = getelementptr inbounds nuw i8, ptr %1, i64 112
  %18 = load i8, ptr %17, align 8, !tbaa !88, !range !48, !noundef !49
  %19 = getelementptr inbounds nuw i8, ptr %0, i64 112
  store i8 %18, ptr %19, align 8, !tbaa !88
  br label %24

20:                                               ; preds = %2
  %21 = getelementptr inbounds nuw i8, ptr %1, i64 40
  %22 = getelementptr inbounds nuw i8, ptr %0, i64 40
  %23 = tail call noundef nonnull align 8 dereferenceable(49) ptr @_ZN9grpc_core13StringMatcheraSERKS0_(ptr noundef nonnull align 8 dereferenceable(49) %22, ptr noundef nonnull align 8 dereferenceable(49) %21)
  br label %24

24:                                               ; preds = %20, %16, %9
  ret ptr %0
}